target datalayout = "e-m:e-p270:32:32-p271:32:32-p272:64:64-i64:64-i128:128-f80:128-n8:16:32:64-S128"
target triple = "x86_64-pc-linux-gnu"

%"class.ue2::CharReach" = type { %"class.ue2::bitfield" }
%"class.ue2::bitfield" = type { %"struct.std::array" }
%"struct.std::array" = type { [4 x i64] }

; Function Attrs: mustprogress nounwind uwtable
define linkonce_odr dso_local noundef ptr @_ZNSt14__array_traitsIyLm4EE6_S_ptrERA4_Ky(ptr noundef nonnull align 8 dereferenceable(32) %0) #2 comdat align 2 {
  %2 = alloca ptr, align 8
  store ptr %0, ptr %2, align 8
  %3 = load ptr, ptr %2, align 8
  %4 = getelementptr inbounds [4 x i64], ptr %3, i64 0, i64 0
  ret ptr %4
}

; Function Attrs: mustprogress nounwind uwtable
define linkonce_odr dso_local noundef ptr @_ZNKSt5arrayIyLm4EE4dataEv(ptr noundef nonnull align 8 dereferenceable(32) %0) #2 comdat align 2 {
  %2 = alloca ptr, align 8
  store ptr %0, ptr %2, align 8
  %3 = load ptr, ptr %2, align 8
  %4 = getelementptr inbounds nuw %"struct.std::array", ptr %3, i32 0, i32 0
  %5 = call noundef ptr @_ZNSt14__array_traitsIyLm4EE6_S_ptrERA4_Ky(ptr noundef nonnull align 8 dereferenceable(32) %4) #15
  ret ptr %5
}

; Function Attrs: mustprogress nounwind uwtable
define linkonce_odr dso_local noundef nonnull align 8 dereferenceable(8) ptr @_ZNSt14__array_traitsIyLm4EE6_S_refERA4_Kym(ptr noundef nonnull align 8 dereferenceable(32) %0, i64 noundef %1) #2 comdat align 2 {
  %3 = alloca ptr, align 8
  %4 = alloca i64, align 8
  store ptr %0, ptr %3, align 8
  store i64 %1, ptr %4, align 8
  %5 = load ptr, ptr %3, align 8
  %6 = load i64, ptr %4, align 8
  %7 = getelementptr inbounds nuw [4 x i64], ptr %5, i64 0, i64 %6
  ret ptr %7
}

; Function Attrs: mustprogress nounwind uwtable
define linkonce_odr hidden noundef i64 @_ZN3ue28bitfieldILm256EE7maskbitEm(i64 noundef %0) #2 comdat align 2 {
  %2 = alloca i64, align 8
  store i64 %0, ptr %2, align 8
  %3 = load i64, ptr %2, align 8
  %4 = urem i64 %3, 64
  %5 = shl i64 1, %4
  ret i64 %5
}

; Function Attrs: mustprogress nounwind uwtable
define linkonce_odr dso_local noundef ptr @_ZNKSt5arrayIyLm4EE3endEv(ptr noundef nonnull align 8 dereferenceable(32) %0) #2 comdat align 2 {
  %2 = alloca ptr, align 8
  store ptr %0, ptr %2, align 8
  %3 = load ptr, ptr %2, align 8
  %4 = call noundef ptr @_ZNKSt5arrayIyLm4EE4dataEv(ptr noundef nonnull align 8 dereferenceable(32) %3) #15
  %5 = getelementptr inbounds nuw i64, ptr %4, i64 4
  ret ptr %5
}

; Function Attrs: mustprogress nounwind uwtable
define linkonce_odr dso_local noundef ptr @_ZNKSt5arrayIyLm4EE5beginEv(ptr noundef nonnull align 8 dereferenceable(32) %0) #2 comdat align 2 {
  %2 = alloca ptr, align 8
  store ptr %0, ptr %2, align 8
  %3 = load ptr, ptr %2, align 8
  %4 = call noundef ptr @_ZNKSt5arrayIyLm4EE4dataEv(ptr noundef nonnull align 8 dereferenceable(32) %3) #15
  ret ptr %4
}

; Function Attrs: mustprogress nounwind uwtable
define linkonce_odr dso_local noundef nonnull align 8 dereferenceable(8) ptr @_ZNSt5arrayIyLm4EEixEm(ptr noundef nonnull align 8 dereferenceable(32) %0, i64 noundef %1) #2 comdat align 2 {
  %3 = alloca ptr, align 8
  %4 = alloca i64, align 8
  store ptr %0, ptr %3, align 8
  store i64 %1, ptr %4, align 8
  %5 = load ptr, ptr %3, align 8
  %6 = getelementptr inbounds nuw %"struct.std::array", ptr %5, i32 0, i32 0
  %7 = load i64, ptr %4, align 8
  %8 = call noundef nonnull align 8 dereferenceable(8) ptr @_ZNSt14__array_traitsIyLm4EE6_S_refERA4_Kym(ptr noundef nonnull align 8 dereferenceable(32) %6, i64 noundef %7) #15
  ret ptr %8
}

; Function Attrs: mustprogress nounwind uwtable
define linkonce_odr dso_local noundef nonnull align 8 dereferenceable(8) ptr @_ZNKSt5arrayIyLm4EEixEm(ptr noundef nonnull align 8 dereferenceable(32) %0, i64 noundef %1) #2 comdat align 2 {
  %3 = alloca ptr, align 8
  %4 = alloca i64, align 8
  store ptr %0, ptr %3, align 8
  store i64 %1, ptr %4, align 8
  %5 = load ptr, ptr %3, align 8
  %6 = getelementptr inbounds nuw %"struct.std::array", ptr %5, i32 0, i32 0
  %7 = load i64, ptr %4, align 8
  %8 = call noundef nonnull align 8 dereferenceable(8) ptr @_ZNSt14__array_traitsIyLm4EE6_S_refERA4_Kym(ptr noundef nonnull align 8 dereferenceable(32) %6, i64 noundef %7) #15
  ret ptr %8
}

; Function Attrs: mustprogress nounwind uwtable
define linkonce_odr hidden void @_ZN3ue28bitfieldILm256EE9set_rangeEmm(ptr noundef nonnull align 8 dereferenceable(32) %0, i64 noundef %1, i64 noundef %2) #2 comdat align 2 {
  %4 = alloca ptr, align 8
  %5 = alloca i64, align 8
  %6 = alloca i64, align 8
  %7 = alloca i64, align 8
  %8 = alloca i64, align 8
  %9 = alloca i64, align 8
  store ptr %0, ptr %4, align 8
  store i64 %1, ptr %5, align 8
  store i64 %2, ptr %6, align 8
  %10 = load ptr, ptr %4, align 8
  %11 = load i64, ptr %5, align 8
  %12 = udiv i64 %11, 64
  %13 = load i64, ptr %6, align 8
  %14 = udiv i64 %13, 64
  %15 = icmp eq i64 %12, %14
  br i1 %15, label %16, label %38

16:                                               ; preds = %3
  call void @llvm.lifetime.start.p0(i64 8, ptr %7) #15
  %17 = load i64, ptr %5, align 8
  %18 = urem i64 %17, 64
  %19 = shl i64 -1, %18
  store i64 %19, ptr %7, align 8
  %20 = load i64, ptr %6, align 8
  %21 = urem i64 %20, 64
  %22 = icmp ne i64 %21, 63
  br i1 %22, label %23, label %30

23:                                               ; preds = %16
  %24 = load i64, ptr %6, align 8
  %25 = add i64 %24, 1
  %26 = call noundef i64 @_ZN3ue28bitfieldILm256EE7maskbitEm(i64 noundef %25)
  %27 = sub i64 %26, 1
  %28 = load i64, ptr %7, align 8
  %29 = and i64 %28, %27
  store i64 %29, ptr %7, align 8
  br label %30

30:                                               ; preds = %23, %16
  %31 = load i64, ptr %7, align 8
  %32 = getelementptr inbounds nuw %"class.ue2::bitfield", ptr %10, i32 0, i32 0
  %33 = load i64, ptr %5, align 8
  %34 = udiv i64 %33, 64
  %35 = call noundef nonnull align 8 dereferenceable(8) ptr @_ZNSt5arrayIyLm4EEixEm(ptr noundef nonnull align 8 dereferenceable(32) %32, i64 noundef %34) #15
  %36 = load i64, ptr %35, align 8
  %37 = or i64 %36, %31
  store i64 %37, ptr %35, align 8
  call void @llvm.lifetime.end.p0(i64 8, ptr %7) #15
  br label %88

38:                                               ; preds = %3
  call void @llvm.lifetime.start.p0(i64 8, ptr %8) #15
  %39 = load i64, ptr %5, align 8
  store i64 %39, ptr %8, align 8
  %40 = load i64, ptr %8, align 8
  %41 = urem i64 %40, 64
  %42 = icmp ne i64 %41, 0
  br i1 %42, label %43, label %57

43:                                               ; preds = %38
  call void @llvm.lifetime.start.p0(i64 8, ptr %9) #15
  %44 = load i64, ptr %8, align 8
  %45 = urem i64 %44, 64
  %46 = shl i64 -1, %45
  store i64 %46, ptr %9, align 8
  %47 = load i64, ptr %9, align 8
  %48 = getelementptr inbounds nuw %"class.ue2::bitfield", ptr %10, i32 0, i32 0
  %49 = load i64, ptr %8, align 8
  %50 = udiv i64 %49, 64
  %51 = call noundef nonnull align 8 dereferenceable(8) ptr @_ZNSt5arrayIyLm4EEixEm(ptr noundef nonnull align 8 dereferenceable(32) %48, i64 noundef %50) #15
  %52 = load i64, ptr %51, align 8
  %53 = or i64 %52, %47
  store i64 %53, ptr %51, align 8
  %54 = load i64, ptr %8, align 8
  %55 = add i64 %54, 63
  %56 = and i64 %55, -64
  store i64 %56, ptr %8, align 8
  call void @llvm.lifetime.end.p0(i64 8, ptr %9) #15
  br label %57

57:                                               ; preds = %43, %38
  br label %58

58:                                               ; preds = %69, %57
  %59 = load i64, ptr %8, align 8
  %60 = add i64 %59, 64
  %61 = load i64, ptr %6, align 8
  %62 = add i64 %61, 1
  %63 = icmp ule i64 %60, %62
  br i1 %63, label %64, label %72

64:                                               ; preds = %58
  %65 = getelementptr inbounds nuw %"class.ue2::bitfield", ptr %10, i32 0, i32 0
  %66 = load i64, ptr %8, align 8
  %67 = udiv i64 %66, 64
  %68 = call noundef nonnull align 8 dereferenceable(8) ptr @_ZNSt5arrayIyLm4EEixEm(ptr noundef nonnull align 8 dereferenceable(32) %65, i64 noundef %67) #15
  store i64 -1, ptr %68, align 8
  br label %69

69:                                               ; preds = %64
  %70 = load i64, ptr %8, align 8
  %71 = add i64 %70, 64
  store i64 %71, ptr %8, align 8
  br label %58, !llvm.loop !18

72:                                               ; preds = %58
  %73 = load i64, ptr %8, align 8
  %74 = load i64, ptr %6, align 8
  %75 = icmp ule i64 %73, %74
  br i1 %75, label %76, label %87

76:                                               ; preds = %72
  %77 = load i64, ptr %6, align 8
  %78 = add i64 %77, 1
  %79 = call noundef i64 @_ZN3ue28bitfieldILm256EE7maskbitEm(i64 noundef %78)
  %80 = sub i64 %79, 1
  %81 = getelementptr inbounds nuw %"class.ue2::bitfield", ptr %10, i32 0, i32 0
  %82 = load i64, ptr %8, align 8
  %83 = udiv i64 %82, 64
  %84 = call noundef nonnull align 8 dereferenceable(8) ptr @_ZNSt5arrayIyLm4EEixEm(ptr noundef nonnull align 8 dereferenceable(32) %81, i64 noundef %83) #15
  %85 = load i64, ptr %84, align 8
  %86 = or i64 %85, %80
  store i64 %86, ptr %84, align 8
  br label %87

87:                                               ; preds = %76, %72
  call void @llvm.lifetime.end.p0(i64 8, ptr %8) #15
  br label %88

88:                                               ; preds = %87, %30
  ret void
}

; Function Attrs: mustprogress nounwind uwtable
define linkonce_odr hidden noundef zeroext i1 @_ZNK3ue28bitfieldILm256EE4noneEv(ptr noundef nonnull align 8 dereferenceable(32) %0) #2 comdat align 2 {
  %2 = alloca i1, align 1
  %3 = alloca ptr, align 8
  %4 = alloca ptr, align 8
  %5 = alloca ptr, align 8
  %6 = alloca ptr, align 8
  %7 = alloca i32, align 4
  %8 = alloca ptr, align 8
  store ptr %0, ptr %3, align 8
  %9 = load ptr, ptr %3, align 8
  call void @llvm.lifetime.start.p0(i64 8, ptr %4) #15
  %10 = getelementptr inbounds nuw %"class.ue2::bitfield", ptr %9, i32 0, i32 0
  store ptr %10, ptr %4, align 8
  call void @llvm.lifetime.start.p0(i64 8, ptr %5) #15
  %11 = load ptr, ptr %4, align 8
  %12 = call noundef ptr @_ZNKSt5arrayIyLm4EE5beginEv(ptr noundef nonnull align 8 dereferenceable(32) %11) #15
  store ptr %12, ptr %5, align 8
  call void @llvm.lifetime.start.p0(i64 8, ptr %6) #15
  %13 = load ptr, ptr %4, align 8
  %14 = call noundef ptr @_ZNKSt5arrayIyLm4EE3endEv(ptr noundef nonnull align 8 dereferenceable(32) %13) #15
  store ptr %14, ptr %6, align 8
  br label %15

15:                                               ; preds = %30, %1
  %16 = load ptr, ptr %5, align 8
  %17 = load ptr, ptr %6, align 8
  %18 = icmp ne ptr %16, %17
  br i1 %18, label %20, label %19

19:                                               ; preds = %15
  store i32 2, ptr %7, align 4
  br label %33

20:                                               ; preds = %15
  call void @llvm.lifetime.start.p0(i64 8, ptr %8) #15
  %21 = load ptr, ptr %5, align 8
  store ptr %21, ptr %8, align 8
  %22 = load ptr, ptr %8, align 8
  %23 = load i64, ptr %22, align 8
  %24 = icmp ne i64 %23, 0
  br i1 %24, label %25, label %26

25:                                               ; preds = %20
  store i1 false, ptr %2, align 1
  store i32 1, ptr %7, align 4
  br label %27

26:                                               ; preds = %20
  store i32 0, ptr %7, align 4
  br label %27

27:                                               ; preds = %26, %25
  call void @llvm.lifetime.end.p0(i64 8, ptr %8) #15
  %28 = load i32, ptr %7, align 4
  switch i32 %28, label %33 [
    i32 0, label %29
  ]

29:                                               ; preds = %27
  br label %30

30:                                               ; preds = %29
  %31 = load ptr, ptr %5, align 8
  %32 = getelementptr inbounds nuw i64, ptr %31, i32 1
  store ptr %32, ptr %5, align 8
  br label %15

33:                                               ; preds = %27, %19
  call void @llvm.lifetime.end.p0(i64 8, ptr %6) #15
  call void @llvm.lifetime.end.p0(i64 8, ptr %5) #15
  call void @llvm.lifetime.end.p0(i64 8, ptr %4) #15
  %34 = load i32, ptr %7, align 4
  switch i32 %34, label %38 [
    i32 2, label %35
    i32 1, label %36
  ]

35:                                               ; preds = %33
  store i1 true, ptr %2, align 1
  br label %36

36:                                               ; preds = %35, %33
  %37 = load i1, ptr %2, align 1
  ret i1 %37

38:                                               ; preds = %33
  unreachable
}

; Function Attrs: mustprogress nounwind uwtable
define linkonce_odr hidden void @_ZN3ue28bitfieldILm256EEaNERKS1_(ptr noundef nonnull align 8 dereferenceable(32) %0, ptr noundef nonnull align 8 dereferenceable(32) %1) #2 comdat align 2 {
  %3 = alloca ptr, align 8
  %4 = alloca ptr, align 8
  %5 = alloca i64, align 8
  store ptr %0, ptr %3, align 8
  store ptr %1, ptr %4, align 8
  %6 = load ptr, ptr %3, align 8
  call void @llvm.lifetime.start.p0(i64 8, ptr %5) #15
  store i64 0, ptr %5, align 8
  br label %7

7:                                                ; preds = %58, %2
  %8 = load i64, ptr %5, align 8
  %9 = add i64 %8, 4
  %10 = icmp ule i64 %9, 4
  br i1 %10, label %11, label %61

11:                                               ; preds = %7
  %12 = load ptr, ptr %4, align 8
  %13 = getelementptr inbounds nuw %"class.ue2::bitfield", ptr %12, i32 0, i32 0
  %14 = load i64, ptr %5, align 8
  %15 = call noundef nonnull align 8 dereferenceable(8) ptr @_ZNKSt5arrayIyLm4EEixEm(ptr noundef nonnull align 8 dereferenceable(32) %13, i64 noundef %14) #15
  %16 = load i64, ptr %15, align 8
  %17 = getelementptr inbounds nuw %"class.ue2::bitfield", ptr %6, i32 0, i32 0
  %18 = load i64, ptr %5, align 8
  %19 = call noundef nonnull align 8 dereferenceable(8) ptr @_ZNSt5arrayIyLm4EEixEm(ptr noundef nonnull align 8 dereferenceable(32) %17, i64 noundef %18) #15
  %20 = load i64, ptr %19, align 8
  %21 = and i64 %20, %16
  store i64 %21, ptr %19, align 8
  %22 = load ptr, ptr %4, align 8
  %23 = getelementptr inbounds nuw %"class.ue2::bitfield", ptr %22, i32 0, i32 0
  %24 = load i64, ptr %5, align 8
  %25 = add i64 %24, 1
  %26 = call noundef nonnull align 8 dereferenceable(8) ptr @_ZNKSt5arrayIyLm4EEixEm(ptr noundef nonnull align 8 dereferenceable(32) %23, i64 noundef %25) #15
  %27 = load i64, ptr %26, align 8
  %28 = getelementptr inbounds nuw %"class.ue2::bitfield", ptr %6, i32 0, i32 0
  %29 = load i64, ptr %5, align 8
  %30 = add i64 %29, 1
  %31 = call noundef nonnull align 8 dereferenceable(8) ptr @_ZNSt5arrayIyLm4EEixEm(ptr noundef nonnull align 8 dereferenceable(32) %28, i64 noundef %30) #15
  %32 = load i64, ptr %31, align 8
  %33 = and i64 %32, %27
  store i64 %33, ptr %31, align 8
  %34 = load ptr, ptr %4, align 8
  %35 = getelementptr inbounds nuw %"class.ue2::bitfield", ptr %34, i32 0, i32 0
  %36 = load i64, ptr %5, align 8
  %37 = add i64 %36, 2
  %38 = call noundef nonnull align 8 dereferenceable(8) ptr @_ZNKSt5arrayIyLm4EEixEm(ptr noundef nonnull align 8 dereferenceable(32) %35, i64 noundef %37) #15
  %39 = load i64, ptr %38, align 8
  %40 = getelementptr inbounds nuw %"class.ue2::bitfield", ptr %6, i32 0, i32 0
  %41 = load i64, ptr %5, align 8
  %42 = add i64 %41, 2
  %43 = call noundef nonnull align 8 dereferenceable(8) ptr @_ZNSt5arrayIyLm4EEixEm(ptr noundef nonnull align 8 dereferenceable(32) %40, i64 noundef %42) #15
  %44 = load i64, ptr %43, align 8
  %45 = and i64 %44, %39
  store i64 %45, ptr %43, align 8
  %46 = load ptr, ptr %4, align 8
  %47 = getelementptr inbounds nuw %"class.ue2::bitfield", ptr %46, i32 0, i32 0
  %48 = load i64, ptr %5, align 8
  %49 = add i64 %48, 3
  %50 = call noundef nonnull align 8 dereferenceable(8) ptr @_ZNKSt5arrayIyLm4EEixEm(ptr noundef nonnull align 8 dereferenceable(32) %47, i64 noundef %49) #15
  %51 = load i64, ptr %50, align 8
  %52 = getelementptr inbounds nuw %"class.ue2::bitfield", ptr %6, i32 0, i32 0
  %53 = load i64, ptr %5, align 8
  %54 = add i64 %53, 3
  %55 = call noundef nonnull align 8 dereferenceable(8) ptr @_ZNSt5arrayIyLm4EEixEm(ptr noundef nonnull align 8 dereferenceable(32) %52, i64 noundef %54) #15
  %56 = load i64, ptr %55, align 8
  %57 = and i64 %56, %51
  store i64 %57, ptr %55, align 8
  br label %58

58:                                               ; preds = %11
  %59 = load i64, ptr %5, align 8
  %60 = add i64 %59, 4
  store i64 %60, ptr %5, align 8
  br label %7, !llvm.loop !16

61:                                               ; preds = %7
  br label %62

62:                                               ; preds = %76, %61
  %63 = load i64, ptr %5, align 8
  %64 = icmp ult i64 %63, 4
  br i1 %64, label %65, label %79

65:                                               ; preds = %62
  %66 = load ptr, ptr %4, align 8
  %67 = getelementptr inbounds nuw %"class.ue2::bitfield", ptr %66, i32 0, i32 0
  %68 = load i64, ptr %5, align 8
  %69 = call noundef nonnull align 8 dereferenceable(8) ptr @_ZNKSt5arrayIyLm4EEixEm(ptr noundef nonnull align 8 dereferenceable(32) %67, i64 noundef %68) #15
  %70 = load i64, ptr %69, align 8
  %71 = getelementptr inbounds nuw %"class.ue2::bitfield", ptr %6, i32 0, i32 0
  %72 = load i64, ptr %5, align 8
  %73 = call noundef nonnull align 8 dereferenceable(8) ptr @_ZNSt5arrayIyLm4EEixEm(ptr noundef nonnull align 8 dereferenceable(32) %71, i64 noundef %72) #15
  %74 = load i64, ptr %73, align 8
  %75 = and i64 %74, %70
  store i64 %75, ptr %73, align 8
  br label %76

76:                                               ; preds = %65
  %77 = load i64, ptr %5, align 8
  %78 = add i64 %77, 1
  store i64 %78, ptr %5, align 8
  br label %62, !llvm.loop !17

79:                                               ; preds = %62
  call void @llvm.lifetime.end.p0(i64 8, ptr %5) #15
  ret void
}

; Function Attrs: mustprogress uwtable
define linkonce_odr hidden void @_ZN3ue29CharReach8setRangeEhh(ptr noundef nonnull align 8 dereferenceable(32) %0, i8 noundef zeroext %1, i8 noundef zeroext %2) #0 comdat align 2 {
  %4 = alloca ptr, align 8
  %5 = alloca i8, align 1
  %6 = alloca i8, align 1
  store ptr %0, ptr %4, align 8
  store i8 %1, ptr %5, align 1
  store i8 %2, ptr %6, align 1
  %7 = load ptr, ptr %4, align 8
  %8 = getelementptr inbounds nuw %"class.ue2::CharReach", ptr %7, i32 0, i32 0
  %9 = load i8, ptr %5, align 1
  %10 = zext i8 %9 to i64
  %11 = load i8, ptr %6, align 1
  %12 = zext i8 %11 to i64
  call void @_ZN3ue28bitfieldILm256EE9set_rangeEmm(ptr noundef nonnull align 8 dereferenceable(32) %8, i64 noundef %10, i64 noundef %12)
  ret void
}

; Function Attrs: mustprogress nounwind uwtable
define linkonce_odr hidden void @_ZN3ue28bitfieldILm256EEC2Ev(ptr noundef nonnull align 8 dereferenceable(32) %0) unnamed_addr #2 comdat align 2 {
  %2 = alloca ptr, align 8
  store ptr %0, ptr %2, align 8
  %3 = load ptr, ptr %2, align 8
  %4 = getelementptr inbounds nuw %"class.ue2::bitfield", ptr %3, i32 0, i32 0
  call void @llvm.memset.p0.i64(ptr align 8 %4, i8 0, i64 32, i1 false)
  ret void
}

; Function Attrs: mustprogress uwtable
define linkonce_odr hidden noundef zeroext i1 @_ZNK3ue29CharReach4noneEv(ptr noundef nonnull align 8 dereferenceable(32) %0) #0 comdat align 2 {
  %2 = alloca ptr, align 8
  store ptr %0, ptr %2, align 8
  %3 = load ptr, ptr %2, align 8
  %4 = getelementptr inbounds nuw %"class.ue2::CharReach", ptr %3, i32 0, i32 0
  %5 = call noundef zeroext i1 @_ZNK3ue28bitfieldILm256EE4noneEv(ptr noundef nonnull align 8 dereferenceable(32) %4)
  ret i1 %5
}

; Function Attrs: mustprogress uwtable
define linkonce_odr hidden void @_ZNK3ue29CharReachanERKS0_(ptr dead_on_unwind noalias writable sret(%"class.ue2::CharReach") align 8 %0, ptr noundef nonnull align 8 dereferenceable(32) %1, ptr noundef nonnull align 8 dereferenceable(32) %2) #0 comdat align 2 {
  %4 = alloca ptr, align 8
  %5 = alloca ptr, align 8
  store ptr %1, ptr %4, align 8
  store ptr %2, ptr %5, align 8
  %6 = load ptr, ptr %4, align 8
  call void @llvm.memcpy.p0.p0.i64(ptr align 8 %0, ptr align 8 %6, i64 32, i1 false)
  %7 = load ptr, ptr %5, align 8
  %8 = getelementptr inbounds nuw %"class.ue2::CharReach", ptr %7, i32 0, i32 0
  %9 = getelementptr inbounds nuw %"class.ue2::CharReach", ptr %0, i32 0, i32 0
  call void @_ZN3ue28bitfieldILm256EEaNERKS1_(ptr noundef nonnull align 8 dereferenceable(32) %9, ptr noundef nonnull align 8 dereferenceable(32) %8)
  ret void
}

; Function Attrs: mustprogress uwtable
define linkonce_odr hidden void @_ZN3ue29CharReachC2Ehh(ptr noundef nonnull align 8 dereferenceable(32) %0, i8 noundef zeroext %1, i8 noundef zeroext %2) unnamed_addr #0 comdat align 2 {
  %4 = alloca ptr, align 8
  %5 = alloca i8, align 1
  %6 = alloca i8, align 1
  store ptr %0, ptr %4, align 8
  store i8 %1, ptr %5, align 1
  store i8 %2, ptr %6, align 1
  %7 = load ptr, ptr %4, align 8
  %8 = getelementptr inbounds nuw %"class.ue2::CharReach", ptr %7, i32 0, i32 0
  call void @_ZN3ue28bitfieldILm256EEC2Ev(ptr noundef nonnull align 8 dereferenceable(32) %8)
  %9 = load i8, ptr %5, align 1
  %10 = load i8, ptr %6, align 1
  call void @_ZN3ue29CharReach8setRangeEhh(ptr noundef nonnull align 8 dereferenceable(32) %7, i8 noundef zeroext %9, i8 noundef zeroext %10)
  ret void
}

; Function Attrs: mustprogress uwtable
define hidden noundef zeroext i1 @_ZN3ue211isutf8startERKNS_9CharReachE(ptr noundef nonnull align 8 dereferenceable(32) %0) #0 {
  %2 = alloca ptr, align 8
  %3 = alloca %"class.ue2::CharReach", align 8
  %4 = alloca %"class.ue2::CharReach", align 8
  store ptr %0, ptr %2, align 8
  call void @llvm.lifetime.start.p0(i64 32, ptr %3) #15
  %5 = load ptr, ptr %2, align 8
  call void @llvm.lifetime.start.p0(i64 32, ptr %4) #15
  call void @_ZN3ue29CharReachC2Ehh(ptr noundef nonnull align 8 dereferenceable(32) %4, i8 noundef zeroext 0, i8 noundef zeroext -65)
  call void @_ZNK3ue29CharReachanERKS0_(ptr dead_on_unwind writable sret(%"class.ue2::CharReach") align 8 %3, ptr noundef nonnull align 8 dereferenceable(32) %5, ptr noundef nonnull align 8 dereferenceable(32) %4)
  %6 = call noundef zeroext i1 @_ZNK3ue29CharReach4noneEv(ptr noundef nonnull align 8 dereferenceable(32) %3)
  call void @llvm.lifetime.end.p0(i64 32, ptr %4) #15
  call void @llvm.lifetime.end.p0(i64 32, ptr %3) #15
  ret i1 %6
}