; Function Attrs: mustprogress nofree norecurse nosync nounwind memory(argmem: readwrite) uwtable
define hidden noundef zeroext i1 @_ZN3ue211isutf8startERKNS_9CharReachE(ptr noundef nonnull readonly align 8 captures(none) dereferenceable(32) %0) local_unnamed_addr #6 {
_ZN3ue29CharReachC2Ehh.exit:
  %1 = alloca %"class.ue2::CharReach", align 8
  call void @llvm.lifetime.start.p0(i64 32, ptr nonnull %1) #17
  call void @llvm.memcpy.p0.p0.i64(ptr noundef nonnull align 8 dereferenceable(32) %1, ptr noundef nonnull align 8 dereferenceable(32) %0, i64 24, i1 false)
  %2 = getelementptr inbounds nuw i8, ptr %1, i64 24
  store i64 0, ptr %2, align 8, !alias.scope !26
  br label %3

3:                                                ; preds = %3, %_ZN3ue29CharReachC2Ehh.exit
  %.012.idx14.i.i = phi i64 [ 0, %_ZN3ue29CharReachC2Ehh.exit ], [ %.012.add.i.i, %3 ]
  %.012.ptr.i.i = getelementptr inbounds nuw i8, ptr %1, i64 %.012.idx14.i.i
  %4 = load i64, ptr %.012.ptr.i.i, align 8
  %.not13.i.i = icmp eq i64 %4, 0
  %.012.add.i.i = add nuw nsw i64 %.012.idx14.i.i, 8
  %.not.i.i = icmp ne i64 %.012.add.i.i, 32
  %or.cond.not.i.i = select i1 %.not13.i.i, i1 %.not.i.i, i1 false
  br i1 %or.cond.not.i.i, label %3, label %_ZNK3ue29CharReach4noneEv.exit

_ZNK3ue29CharReach4noneEv.exit:                   ; preds = %3
  call void @llvm.lifetime.end.p0(i64 32, ptr nonnull %1) #17
  ret i1 %.not13.i.i
}